target datalayout = "e-m:e-p270:32:32-p271:32:32-p272:64:64-i64:64-i128:128-f80:128-n8:16:32:64-S128"
target triple = "x86_64-pc-linux-gnu"

%union.pthread_mutex_t = type { %struct.__pthread_mutex_s }
%struct.__pthread_mutex_s = type { i32, i32, i32, i32, i32, i16, i16, %struct.__pthread_internal_list }
%struct.__pthread_internal_list = type { ptr, ptr }
%struct.slurmctld_config = type { ptr, %union.pthread_cond_t, %union.pthread_mutex_t, %union.pthread_cond_t, %union.pthread_mutex_t, i64, [64 x i8], [64 x i8], i8, i8, i32, i64, i8, %union.pthread_cond_t, %union.pthread_mutex_t, i64, i64, i64, i64 }
%union.pthread_cond_t = type { %struct.__pthread_cond_s }
%struct.__pthread_cond_s = type { %union.__atomic_wide_counter, %union.__atomic_wide_counter, [2 x i32], [2 x i32], i32, i32, [2 x i32] }
%union.__atomic_wide_counter = type { i64 }
%struct.slurmctld_lock_t = type { i32, i32, i32, i32, i32 }
%struct.timespec = type { i64, i64 }

@.str.3 = private unnamed_addr constant [29 x i8] c"%s: pthread_mutex_lock(): %m\00", align 1
@slurmctld_config = external global %struct.slurmctld_config, align 8
@.str.6 = private unnamed_addr constant [8 x i8] c"agent.c\00", align 1
@.str.7 = private unnamed_addr constant [31 x i8] c"%s: pthread_mutex_unlock(): %m\00", align 1
@update_srun_list = internal global ptr null, align 8
@update_srun_mutex = internal global %union.pthread_mutex_t zeroinitializer, align 8
@update_srun_cond = internal global %union.pthread_cond_t zeroinitializer, align 8
@.str.63 = private unnamed_addr constant [39 x i8] c"%s:%d %s: pthread_cond_timedwait(): %m\00", align 1
@__const._agent_srun_update.job_write_lock = private unnamed_addr constant %struct.slurmctld_lock_t { i32 0, i32 2, i32 0, i32 0, i32 0 }, align 4
@__func__._agent_srun_update = private unnamed_addr constant [19 x i8] c"_agent_srun_update\00", align 1

; Function Attrs: nounwind uwtable
define internal ptr @_agent_srun_update(ptr noundef %0) #0 {
  %2 = alloca ptr, align 8
  %3 = alloca %struct.timespec, align 8
  %4 = alloca %struct.slurmctld_lock_t, align 8
  %5 = alloca i32, align 4
  %6 = alloca i32, align 4
  %7 = alloca i32, align 4
  store ptr %0, ptr %2, align 8
  call void @llvm.lifetime.start.p0(i64 16, ptr %3) #10
  call void @llvm.memset.p0.i64(ptr align 8 %3, i8 0, i64 16, i1 false)
  call void @llvm.lifetime.start.p0(i64 20, ptr %4) #10
  call void @llvm.memcpy.p0.p0.i64(ptr align 4 %4, ptr align 4 @__const._agent_srun_update.job_write_lock, i64 20, i1 false)
  br label %8

8:                                                ; preds = %1
  call void @llvm.lifetime.start.p0(i64 4, ptr %5) #10
  %9 = call i32 @pthread_mutex_lock(ptr noundef @update_srun_mutex) #10
  store i32 %9, ptr %5, align 4
  %10 = load i32, ptr %5, align 4
  %11 = icmp ne i32 %10, 0
  br i1 %11, label %12, label %15

12:                                               ; preds = %8
  %13 = load i32, ptr %5, align 4
  %14 = call ptr @__errno_location() #11
  store i32 %13, ptr %14, align 4
  call void (ptr, ...) @fatal_abort(ptr noundef @.str.3, ptr noundef @__func__._agent_srun_update) #12
  unreachable

15:                                               ; preds = %8
  call void @llvm.lifetime.end.p0(i64 4, ptr %5) #10
  br label %16

16:                                               ; preds = %15
  br label %17

17:                                               ; preds = %16
  br label %18

18:                                               ; preds = %45, %44, %17
  br label %19

19:                                               ; preds = %18
  %20 = call i64 @time(ptr noundef null) #10
  %21 = add nsw i64 %20, 2
  %22 = getelementptr inbounds nuw %struct.timespec, ptr %3, i32 0, i32 0
  store i64 %21, ptr %22, align 8
  br label %23

23:                                               ; preds = %19
  call void @llvm.lifetime.start.p0(i64 4, ptr %6) #10
  %24 = call i32 @pthread_cond_timedwait(ptr noundef @update_srun_cond, ptr noundef @update_srun_mutex, ptr noundef %3)
  store i32 %24, ptr %6, align 4
  %25 = load i32, ptr %6, align 4
  %26 = icmp ne i32 %25, 0
  br i1 %26, label %27, label %34

27:                                               ; preds = %23
  %28 = load i32, ptr %6, align 4
  %29 = icmp ne i32 %28, 110
  br i1 %29, label %30, label %34

30:                                               ; preds = %27
  %31 = load i32, ptr %6, align 4
  %32 = call ptr @__errno_location() #11
  store i32 %31, ptr %32, align 4
  %33 = call i32 (ptr, ...) @error(ptr noundef @.str.63, ptr noundef @.str.6, i32 noundef 1572, ptr noundef @__func__._agent_srun_update)
  br label %34

34:                                               ; preds = %30, %27, %23
  call void @llvm.lifetime.end.p0(i64 4, ptr %6) #10
  br label %35

35:                                               ; preds = %34
  br label %36

36:                                               ; preds = %35
  %37 = load i64, ptr getelementptr inbounds nuw (%struct.slurmctld_config, ptr @slurmctld_config, i32 0, i32 11), align 8
  %38 = icmp ne i64 %37, 0
  br i1 %38, label %39, label %40

39:                                               ; preds = %36
  br label %48

40:                                               ; preds = %36
  %41 = load ptr, ptr @update_srun_list, align 8
  %42 = call i32 @list_count(ptr noundef %41)
  %43 = icmp ne i32 %42, 0
  br i1 %43, label %45, label %44

44:                                               ; preds = %40
  br label %18, !llvm.loop !26

45:                                               ; preds = %40
  call void @lock_slurmctld(ptr noundef byval(%struct.slurmctld_lock_t) align 8 %4)
  %46 = load ptr, ptr @update_srun_list, align 8
  %47 = call i32 @list_delete_all(ptr noundef %46, ptr noundef @_foreach_srun_response, ptr noundef null)
  call void @unlock_slurmctld(ptr noundef byval(%struct.slurmctld_lock_t) align 8 %4)
  br label %18, !llvm.loop !26

48:                                               ; preds = %39
  br label %49

49:                                               ; preds = %48
  call void @llvm.lifetime.start.p0(i64 4, ptr %7) #10
  %50 = call i32 @pthread_mutex_unlock(ptr noundef @update_srun_mutex) #10
  store i32 %50, ptr %7, align 4
  %51 = load i32, ptr %7, align 4
  %52 = icmp ne i32 %51, 0
  br i1 %52, label %53, label %56

53:                                               ; preds = %49
  %54 = load i32, ptr %7, align 4
  %55 = call ptr @__errno_location() #11
  store i32 %54, ptr %55, align 4
  call void (ptr, ...) @fatal_abort(ptr noundef @.str.7, ptr noundef @__func__._agent_srun_update) #12
  unreachable

56:                                               ; preds = %49
  call void @llvm.lifetime.end.p0(i64 4, ptr %7) #10
  br label %57

57:                                               ; preds = %56
  br label %58

58:                                               ; preds = %57
  call void @llvm.lifetime.end.p0(i64 20, ptr %4) #10
  call void @llvm.lifetime.end.p0(i64 16, ptr %3) #10
  ret ptr null
}